target datalayout = "e-m:e-p270:32:32-p271:32:32-p272:64:64-i64:64-i128:128-f80:128-n8:16:32:64-S128"
target triple = "x86_64-pc-linux-gnu"

%struct.php_avif_stream = type { ptr, [64 x i8] }

@php_sig_gif = constant [3 x i8] c"GIF", align 1
@php_sig_psd = constant [4 x i8] c"8BPS", align 1
@php_sig_bmp = constant [2 x i8] c"BM", align 1
@php_sig_swf = constant [3 x i8] c"FWS", align 1
@php_sig_swc = constant [3 x i8] c"CWS", align 1
@php_sig_jpg = constant [3 x i8] c"\FF\D8\FF", align 1
@php_sig_png = constant [8 x i8] c"\89PNG\0D\0A\1A\0A", align 1
@php_sig_tif_ii = constant [4 x i8] c"II*\00", align 1
@php_sig_tif_mm = constant [4 x i8] c"MM\00*", align 1
@php_sig_jpc = constant [3 x i8] c"\FFO\FF", align 1
@php_sig_jp2 = constant [12 x i8] c"\00\00\00\0CjP  \0D\0A\87\0A", align 1
@php_sig_iff = constant [4 x i8] c"FORM", align 1
@php_sig_ico = constant [4 x i8] c"\00\00\01\00", align 1
@php_sig_riff = constant [4 x i8] c"RIFF", align 1
@php_sig_webp = constant [4 x i8] c"WEBP", align 1
@.str.31 = private unnamed_addr constant [23 x i8] c"Error reading from %s!\00", align 1
@.str.32 = private unnamed_addr constant [39 x i8] c"PNG file corrupted by ASCII conversion\00", align 1

; Function Attrs: nounwind uwtable
define zeroext i1 @php_is_image_avif(ptr noundef %0) #0 {
  %2 = alloca i1, align 1
  %3 = alloca ptr, align 8
  %4 = alloca %struct.php_avif_stream, align 8
  store ptr %0, ptr %3, align 8
  %5 = load ptr, ptr %3, align 8
  %6 = getelementptr inbounds %struct.php_avif_stream, ptr %4, i32 0, i32 0
  store ptr %5, ptr %6, align 8
  %7 = call i32 @AvifInfoIdentifyStream(ptr noundef %4, ptr noundef @php_avif_stream_read, ptr noundef @php_avif_stream_skip)
  %8 = icmp eq i32 %7, 0
  br i1 %8, label %9, label %10

9:                                                ; preds = %1
  store i1 true, ptr %2, align 1
  br label %11

10:                                               ; preds = %1
  store i1 false, ptr %2, align 1
  br label %11

11:                                               ; preds = %10, %9
  %12 = load i1, ptr %2, align 1
  ret i1 %12
}

; Function Attrs: nounwind uwtable
define i32 @php_getimagetype(ptr noundef %0, ptr noundef %1, ptr noundef %2) #0 {
  %4 = alloca i32, align 4
  %5 = alloca ptr, align 8
  %6 = alloca ptr, align 8
  %7 = alloca ptr, align 8
  %8 = alloca [12 x i8], align 1
  %9 = alloca i32, align 4
  store ptr %0, ptr %5, align 8
  store ptr %1, ptr %6, align 8
  store ptr %2, ptr %7, align 8
  %10 = load ptr, ptr %7, align 8
  %11 = icmp ne ptr %10, null
  br i1 %11, label %14, label %12

12:                                               ; preds = %3
  %13 = getelementptr inbounds [12 x i8], ptr %8, i64 0, i64 0
  store ptr %13, ptr %7, align 8
  br label %14

14:                                               ; preds = %12, %3
  %15 = load ptr, ptr %5, align 8
  %16 = load ptr, ptr %7, align 8
  %17 = call i64 @_php_stream_read(ptr noundef %15, ptr noundef %16, i64 noundef 3)
  %18 = icmp ne i64 %17, 3
  br i1 %18, label %19, label %21

19:                                               ; preds = %14
  %20 = load ptr, ptr %6, align 8
  call void (ptr, i32, ptr, ...) @php_error_docref(ptr noundef null, i32 noundef 8, ptr noundef @.str.31, ptr noundef %20)
  store i32 0, ptr %4, align 4
  br label %170

21:                                               ; preds = %14
  %22 = load ptr, ptr %7, align 8
  %23 = call i32 @memcmp(ptr noundef %22, ptr noundef @php_sig_gif, i64 noundef 3) #12
  %24 = icmp ne i32 %23, 0
  br i1 %24, label %26, label %25

25:                                               ; preds = %21
  store i32 1, ptr %4, align 4
  br label %170

26:                                               ; preds = %21
  %27 = load ptr, ptr %7, align 8
  %28 = call i32 @memcmp(ptr noundef %27, ptr noundef @php_sig_jpg, i64 noundef 3) #12
  %29 = icmp ne i32 %28, 0
  br i1 %29, label %31, label %30

30:                                               ; preds = %26
  store i32 2, ptr %4, align 4
  br label %170

31:                                               ; preds = %26
  %32 = load ptr, ptr %7, align 8
  %33 = call i32 @memcmp(ptr noundef %32, ptr noundef @php_sig_png, i64 noundef 3) #12
  %34 = icmp ne i32 %33, 0
  br i1 %34, label %49, label %35

35:                                               ; preds = %31
  %36 = load ptr, ptr %5, align 8
  %37 = load ptr, ptr %7, align 8
  %38 = getelementptr inbounds i8, ptr %37, i64 3
  %39 = call i64 @_php_stream_read(ptr noundef %36, ptr noundef %38, i64 noundef 5)
  %40 = icmp ne i64 %39, 5
  br i1 %40, label %41, label %43

41:                                               ; preds = %35
  %42 = load ptr, ptr %6, align 8
  call void (ptr, i32, ptr, ...) @php_error_docref(ptr noundef null, i32 noundef 8, ptr noundef @.str.31, ptr noundef %42)
  store i32 0, ptr %4, align 4
  br label %170

43:                                               ; preds = %35
  %44 = load ptr, ptr %7, align 8
  %45 = call i32 @memcmp(ptr noundef %44, ptr noundef @php_sig_png, i64 noundef 8) #12
  %46 = icmp ne i32 %45, 0
  br i1 %46, label %48, label %47

47:                                               ; preds = %43
  store i32 3, ptr %4, align 4
  br label %170

48:                                               ; preds = %43
  call void (ptr, i32, ptr, ...) @php_error_docref(ptr noundef null, i32 noundef 2, ptr noundef @.str.32)
  store i32 0, ptr %4, align 4
  br label %170

49:                                               ; preds = %31
  %50 = load ptr, ptr %7, align 8
  %51 = call i32 @memcmp(ptr noundef %50, ptr noundef @php_sig_swf, i64 noundef 3) #12
  %52 = icmp ne i32 %51, 0
  br i1 %52, label %54, label %53

53:                                               ; preds = %49
  store i32 4, ptr %4, align 4
  br label %170

54:                                               ; preds = %49
  %55 = load ptr, ptr %7, align 8
  %56 = call i32 @memcmp(ptr noundef %55, ptr noundef @php_sig_swc, i64 noundef 3) #12
  %57 = icmp ne i32 %56, 0
  br i1 %57, label %59, label %58

58:                                               ; preds = %54
  store i32 13, ptr %4, align 4
  br label %170

59:                                               ; preds = %54
  %60 = load ptr, ptr %7, align 8
  %61 = call i32 @memcmp(ptr noundef %60, ptr noundef @php_sig_psd, i64 noundef 3) #12
  %62 = icmp ne i32 %61, 0
  br i1 %62, label %64, label %63

63:                                               ; preds = %59
  store i32 5, ptr %4, align 4
  br label %170

64:                                               ; preds = %59
  %65 = load ptr, ptr %7, align 8
  %66 = call i32 @memcmp(ptr noundef %65, ptr noundef @php_sig_bmp, i64 noundef 2) #12
  %67 = icmp ne i32 %66, 0
  br i1 %67, label %69, label %68

68:                                               ; preds = %64
  store i32 6, ptr %4, align 4
  br label %170

69:                                               ; preds = %64
  %70 = load ptr, ptr %7, align 8
  %71 = call i32 @memcmp(ptr noundef %70, ptr noundef @php_sig_jpc, i64 noundef 3) #12
  %72 = icmp ne i32 %71, 0
  br i1 %72, label %74, label %73

73:                                               ; preds = %69
  store i32 9, ptr %4, align 4
  br label %170

74:                                               ; preds = %69
  %75 = load ptr, ptr %7, align 8
  %76 = call i32 @memcmp(ptr noundef %75, ptr noundef @php_sig_riff, i64 noundef 3) #12
  %77 = icmp ne i32 %76, 0
  br i1 %77, label %93, label %78

78:                                               ; preds = %74
  %79 = load ptr, ptr %5, align 8
  %80 = load ptr, ptr %7, align 8
  %81 = getelementptr inbounds i8, ptr %80, i64 3
  %82 = call i64 @_php_stream_read(ptr noundef %79, ptr noundef %81, i64 noundef 9)
  %83 = icmp ne i64 %82, 9
  br i1 %83, label %84, label %86

84:                                               ; preds = %78
  %85 = load ptr, ptr %6, align 8
  call void (ptr, i32, ptr, ...) @php_error_docref(ptr noundef null, i32 noundef 8, ptr noundef @.str.31, ptr noundef %85)
  store i32 0, ptr %4, align 4
  br label %170

86:                                               ; preds = %78
  %87 = load ptr, ptr %7, align 8
  %88 = getelementptr inbounds i8, ptr %87, i64 8
  %89 = call i32 @memcmp(ptr noundef %88, ptr noundef @php_sig_webp, i64 noundef 4) #12
  %90 = icmp ne i32 %89, 0
  br i1 %90, label %92, label %91

91:                                               ; preds = %86
  store i32 18, ptr %4, align 4
  br label %170

92:                                               ; preds = %86
  store i32 0, ptr %4, align 4
  br label %170

93:                                               ; preds = %74
  br label %94

94:                                               ; preds = %93
  br label %95

95:                                               ; preds = %94
  br label %96

96:                                               ; preds = %95
  br label %97

97:                                               ; preds = %96
  br label %98

98:                                               ; preds = %97
  br label %99

99:                                               ; preds = %98
  br label %100

100:                                              ; preds = %99
  br label %101

101:                                              ; preds = %100
  %102 = load ptr, ptr %5, align 8
  %103 = load ptr, ptr %7, align 8
  %104 = getelementptr inbounds i8, ptr %103, i64 3
  %105 = call i64 @_php_stream_read(ptr noundef %102, ptr noundef %104, i64 noundef 1)
  %106 = icmp ne i64 %105, 1
  br i1 %106, label %107, label %109

107:                                              ; preds = %101
  %108 = load ptr, ptr %6, align 8
  call void (ptr, i32, ptr, ...) @php_error_docref(ptr noundef null, i32 noundef 8, ptr noundef @.str.31, ptr noundef %108)
  store i32 0, ptr %4, align 4
  br label %170

109:                                              ; preds = %101
  %110 = load ptr, ptr %7, align 8
  %111 = call i32 @memcmp(ptr noundef %110, ptr noundef @php_sig_tif_ii, i64 noundef 4) #12
  %112 = icmp ne i32 %111, 0
  br i1 %112, label %114, label %113

113:                                              ; preds = %109
  store i32 7, ptr %4, align 4
  br label %170

114:                                              ; preds = %109
  %115 = load ptr, ptr %7, align 8
  %116 = call i32 @memcmp(ptr noundef %115, ptr noundef @php_sig_tif_mm, i64 noundef 4) #12
  %117 = icmp ne i32 %116, 0
  br i1 %117, label %119, label %118

118:                                              ; preds = %114
  store i32 8, ptr %4, align 4
  br label %170

119:                                              ; preds = %114
  %120 = load ptr, ptr %7, align 8
  %121 = call i32 @memcmp(ptr noundef %120, ptr noundef @php_sig_iff, i64 noundef 4) #12
  %122 = icmp ne i32 %121, 0
  br i1 %122, label %124, label %123

123:                                              ; preds = %119
  store i32 14, ptr %4, align 4
  br label %170

124:                                              ; preds = %119
  %125 = load ptr, ptr %7, align 8
  %126 = call i32 @memcmp(ptr noundef %125, ptr noundef @php_sig_ico, i64 noundef 4) #12
  %127 = icmp ne i32 %126, 0
  br i1 %127, label %129, label %128

128:                                              ; preds = %124
  store i32 17, ptr %4, align 4
  br label %170

129:                                              ; preds = %124
  br label %130

130:                                              ; preds = %129
  br label %131

131:                                              ; preds = %130
  br label %132

132:                                              ; preds = %131
  %133 = load ptr, ptr %5, align 8
  %134 = load ptr, ptr %7, align 8
  %135 = getelementptr inbounds i8, ptr %134, i64 4
  %136 = call i64 @_php_stream_read(ptr noundef %133, ptr noundef %135, i64 noundef 8)
  %137 = icmp eq i64 %136, 8
  %138 = zext i1 %137 to i32
  store i32 %138, ptr %9, align 4
  %139 = load i32, ptr %9, align 4
  %140 = icmp ne i32 %139, 0
  br i1 %140, label %141, label %146

141:                                              ; preds = %132
  %142 = load ptr, ptr %7, align 8
  %143 = call i32 @memcmp(ptr noundef %142, ptr noundef @php_sig_jp2, i64 noundef 12) #12
  %144 = icmp ne i32 %143, 0
  br i1 %144, label %146, label %145

145:                                              ; preds = %141
  store i32 10, ptr %4, align 4
  br label %170

146:                                              ; preds = %141, %132
  %147 = load ptr, ptr %5, align 8
  %148 = call i32 @_php_stream_seek(ptr noundef %147, i64 noundef 0, i32 noundef 0)
  %149 = icmp ne i32 %148, 0
  br i1 %149, label %154, label %150

150:                                              ; preds = %146
  %151 = load ptr, ptr %5, align 8
  %152 = call zeroext i1 @php_is_image_avif(ptr noundef %151)
  br i1 %152, label %153, label %154

153:                                              ; preds = %150
  store i32 19, ptr %4, align 4
  br label %170

154:                                              ; preds = %150, %146
  %155 = load ptr, ptr %5, align 8
  %156 = call i32 @php_get_wbmp(ptr noundef %155, ptr noundef null, i32 noundef 1)
  %157 = icmp ne i32 %156, 0
  br i1 %157, label %158, label %159

158:                                              ; preds = %154
  store i32 15, ptr %4, align 4
  br label %170

159:                                              ; preds = %154
  %160 = load i32, ptr %9, align 4
  %161 = icmp ne i32 %160, 0
  br i1 %161, label %164, label %162

162:                                              ; preds = %159
  %163 = load ptr, ptr %6, align 8
  call void (ptr, i32, ptr, ...) @php_error_docref(ptr noundef null, i32 noundef 8, ptr noundef @.str.31, ptr noundef %163)
  store i32 0, ptr %4, align 4
  br label %170

164:                                              ; preds = %159
  %165 = load ptr, ptr %5, align 8
  %166 = call i32 @php_get_xbm(ptr noundef %165, ptr noundef null)
  %167 = icmp ne i32 %166, 0
  br i1 %167, label %168, label %169

168:                                              ; preds = %164
  store i32 16, ptr %4, align 4
  br label %170

169:                                              ; preds = %164
  store i32 0, ptr %4, align 4
  br label %170

170:                                              ; preds = %169, %168, %162, %158, %153, %145, %128, %123, %118, %113, %107, %92, %91, %84, %73, %68, %63, %58, %53, %48, %47, %41, %30, %25, %19
  %171 = load i32, ptr %4, align 4
  ret i32 %171
}