; Function Attrs: nounwind uwtable
define i32 @php_getimagetype(ptr noundef %0, ptr noundef %1, ptr noundef %2) local_unnamed_addr #0 {
  %4 = alloca %struct.php_avif_stream, align 8
  %5 = alloca [12 x i8], align 1
  %.not = icmp eq ptr %2, null
  %spec.select = select i1 %.not, ptr %5, ptr %2
  %6 = call i64 @_php_stream_read(ptr noundef %0, ptr noundef nonnull %spec.select, i64 noundef 3) #13
  %.not40 = icmp eq i64 %6, 3
  br i1 %.not40, label %8, label %7

7:                                                ; preds = %3
  call void (ptr, i32, ptr, ...) @php_error_docref(ptr noundef null, i32 noundef 8, ptr noundef nonnull @.str.31, ptr noundef %1) #13
  br label %48

8:                                                ; preds = %3
  %bcmp = call i32 @bcmp(ptr noundef nonnull dereferenceable(3) %spec.select, ptr noundef nonnull dereferenceable(3) @php_sig_gif, i64 3)
  %.not41 = icmp eq i32 %bcmp, 0
  br i1 %.not41, label %48, label %9

9:                                                ; preds = %8
  %bcmp42 = call i32 @bcmp(ptr noundef nonnull dereferenceable(3) %spec.select, ptr noundef nonnull dereferenceable(3) @php_sig_jpg, i64 3)
  %.not43 = icmp eq i32 %bcmp42, 0
  br i1 %.not43, label %48, label %10

10:                                               ; preds = %9
  %bcmp44 = call i32 @bcmp(ptr noundef nonnull dereferenceable(3) %spec.select, ptr noundef nonnull dereferenceable(3) @php_sig_png, i64 3)
  %.not45 = icmp eq i32 %bcmp44, 0
  br i1 %.not45, label %11, label %16

11:                                               ; preds = %10
  %spec.select.sroa.sel.v.sroa.sel.v.sroa.sel.v = select i1 %.not, ptr %5, ptr %2
  %spec.select.sroa.sel.v.sroa.sel.v.sroa.sel = getelementptr inbounds i8, ptr %spec.select.sroa.sel.v.sroa.sel.v.sroa.sel.v, i64 3
  %12 = call i64 @_php_stream_read(ptr noundef %0, ptr noundef nonnull %spec.select.sroa.sel.v.sroa.sel.v.sroa.sel, i64 noundef 5) #13
  %.not46 = icmp eq i64 %12, 5
  br i1 %.not46, label %14, label %13

13:                                               ; preds = %11
  call void (ptr, i32, ptr, ...) @php_error_docref(ptr noundef null, i32 noundef 8, ptr noundef nonnull @.str.31, ptr noundef %1) #13
  br label %48

14:                                               ; preds = %11
  %bcmp47 = call i32 @bcmp(ptr noundef nonnull dereferenceable(8) %spec.select, ptr noundef nonnull dereferenceable(8) @php_sig_png, i64 8)
  %.not48 = icmp eq i32 %bcmp47, 0
  br i1 %.not48, label %48, label %15

15:                                               ; preds = %14
  call void (ptr, i32, ptr, ...) @php_error_docref(ptr noundef null, i32 noundef 2, ptr noundef nonnull @.str.32) #13
  br label %48

16:                                               ; preds = %10
  %bcmp49 = call i32 @bcmp(ptr noundef nonnull dereferenceable(3) %spec.select, ptr noundef nonnull dereferenceable(3) @php_sig_swf, i64 3)
  %.not50 = icmp eq i32 %bcmp49, 0
  br i1 %.not50, label %48, label %17

17:                                               ; preds = %16
  %bcmp51 = call i32 @bcmp(ptr noundef nonnull dereferenceable(3) %spec.select, ptr noundef nonnull dereferenceable(3) @php_sig_swc, i64 3)
  %.not52 = icmp eq i32 %bcmp51, 0
  br i1 %.not52, label %48, label %18

18:                                               ; preds = %17
  %bcmp53 = call i32 @bcmp(ptr noundef nonnull dereferenceable(3) %spec.select, ptr noundef nonnull dereferenceable(3) @php_sig_psd, i64 3)
  %.not54 = icmp eq i32 %bcmp53, 0
  br i1 %.not54, label %48, label %19

19:                                               ; preds = %18
  %bcmp55 = call i32 @bcmp(ptr noundef nonnull dereferenceable(2) %spec.select, ptr noundef nonnull dereferenceable(2) @php_sig_bmp, i64 2)
  %.not56 = icmp eq i32 %bcmp55, 0
  br i1 %.not56, label %48, label %20

20:                                               ; preds = %19
  %bcmp57 = call i32 @bcmp(ptr noundef nonnull dereferenceable(3) %spec.select, ptr noundef nonnull dereferenceable(3) @php_sig_jpc, i64 3)
  %.not58 = icmp eq i32 %bcmp57, 0
  br i1 %.not58, label %48, label %21

21:                                               ; preds = %20
  %bcmp59 = call i32 @bcmp(ptr noundef nonnull dereferenceable(3) %spec.select, ptr noundef nonnull dereferenceable(3) @php_sig_riff, i64 3)
  %.not60 = icmp eq i32 %bcmp59, 0
  %spec.select.sroa.sel85.v.sroa.sel.v.sroa.sel.v = select i1 %.not, ptr %5, ptr %2
  %spec.select.sroa.sel85.v.sroa.sel.v.sroa.sel = getelementptr inbounds i8, ptr %spec.select.sroa.sel85.v.sroa.sel.v.sroa.sel.v, i64 3
  br i1 %.not60, label %22, label %26

22:                                               ; preds = %21
  %23 = call i64 @_php_stream_read(ptr noundef %0, ptr noundef nonnull %spec.select.sroa.sel85.v.sroa.sel.v.sroa.sel, i64 noundef 9) #13
  %.not61 = icmp eq i64 %23, 9
  br i1 %.not61, label %25, label %24

24:                                               ; preds = %22
  call void (ptr, i32, ptr, ...) @php_error_docref(ptr noundef null, i32 noundef 8, ptr noundef nonnull @.str.31, ptr noundef %1) #13
  br label %48

25:                                               ; preds = %22
  %spec.select.sroa.sel82.v.sroa.sel.v.sroa.sel.v = select i1 %.not, ptr %5, ptr %2
  %spec.select.sroa.sel82.v.sroa.sel.v.sroa.sel = getelementptr inbounds i8, ptr %spec.select.sroa.sel82.v.sroa.sel.v.sroa.sel.v, i64 8
  %bcmp62 = call i32 @bcmp(ptr noundef nonnull dereferenceable(4) %spec.select.sroa.sel82.v.sroa.sel.v.sroa.sel, ptr noundef nonnull dereferenceable(4) @php_sig_webp, i64 4)
  %.not63 = icmp eq i32 %bcmp62, 0
  %. = select i1 %.not63, i32 18, i32 0
  br label %48

26:                                               ; preds = %21
  %27 = call i64 @_php_stream_read(ptr noundef %0, ptr noundef nonnull %spec.select.sroa.sel85.v.sroa.sel.v.sroa.sel, i64 noundef 1) #13
  %.not64 = icmp eq i64 %27, 1
  br i1 %.not64, label %29, label %28

28:                                               ; preds = %26
  call void (ptr, i32, ptr, ...) @php_error_docref(ptr noundef null, i32 noundef 8, ptr noundef nonnull @.str.31, ptr noundef %1) #13
  br label %48

29:                                               ; preds = %26
  %bcmp65 = call i32 @bcmp(ptr noundef nonnull dereferenceable(4) %spec.select, ptr noundef nonnull dereferenceable(4) @php_sig_tif_ii, i64 4)
  %.not66 = icmp eq i32 %bcmp65, 0
  br i1 %.not66, label %48, label %30

30:                                               ; preds = %29
  %bcmp67 = call i32 @bcmp(ptr noundef nonnull dereferenceable(4) %spec.select, ptr noundef nonnull dereferenceable(4) @php_sig_tif_mm, i64 4)
  %.not68 = icmp eq i32 %bcmp67, 0
  br i1 %.not68, label %48, label %31

31:                                               ; preds = %30
  %bcmp69 = call i32 @bcmp(ptr noundef nonnull dereferenceable(4) %spec.select, ptr noundef nonnull dereferenceable(4) @php_sig_iff, i64 4)
  %.not70 = icmp eq i32 %bcmp69, 0
  br i1 %.not70, label %48, label %32

32:                                               ; preds = %31
  %bcmp71 = call i32 @bcmp(ptr noundef nonnull dereferenceable(4) %spec.select, ptr noundef nonnull dereferenceable(4) @php_sig_ico, i64 4)
  %.not72 = icmp eq i32 %bcmp71, 0
  br i1 %.not72, label %48, label %33

33:                                               ; preds = %32
  %spec.select.sroa.sel88.v.sroa.sel.v.sroa.sel.v = select i1 %.not, ptr %5, ptr %2
  %spec.select.sroa.sel88.v.sroa.sel.v.sroa.sel = getelementptr inbounds i8, ptr %spec.select.sroa.sel88.v.sroa.sel.v.sroa.sel.v, i64 4
  %34 = call i64 @_php_stream_read(ptr noundef %0, ptr noundef nonnull %spec.select.sroa.sel88.v.sroa.sel.v.sroa.sel, i64 noundef 8) #13
  %35 = icmp eq i64 %34, 8
  br i1 %35, label %36, label %37

36:                                               ; preds = %33
  %bcmp73 = call i32 @bcmp(ptr noundef nonnull dereferenceable(12) %spec.select, ptr noundef nonnull dereferenceable(12) @php_sig_jp2, i64 12)
  %.not74 = icmp eq i32 %bcmp73, 0
  br i1 %.not74, label %48, label %37

37:                                               ; preds = %36, %33
  %38 = call i32 @_php_stream_seek(ptr noundef %0, i64 noundef 0, i32 noundef 0) #13
  %.not75 = icmp eq i32 %38, 0
  br i1 %.not75, label %39, label %42

39:                                               ; preds = %37
  call void @llvm.lifetime.start.p0(i64 72, ptr nonnull %4)
  store ptr %0, ptr %4, align 8
  %40 = call i32 @AvifInfoIdentifyStream(ptr noundef nonnull %4, ptr noundef nonnull @php_avif_stream_read, ptr noundef nonnull @php_avif_stream_skip) #13
  %41 = icmp eq i32 %40, 0
  call void @llvm.lifetime.end.p0(i64 72, ptr nonnull %4)
  br i1 %41, label %48, label %42

42:                                               ; preds = %39, %37
  %43 = call fastcc i32 @php_get_wbmp(ptr noundef %0, ptr noundef null, i32 noundef 1), !range !4
  %.not76 = icmp eq i32 %43, 0
  br i1 %.not76, label %44, label %48

44:                                               ; preds = %42
  br i1 %35, label %46, label %45

45:                                               ; preds = %44
  call void (ptr, i32, ptr, ...) @php_error_docref(ptr noundef null, i32 noundef 8, ptr noundef nonnull @.str.31, ptr noundef %1) #13
  br label %48

46:                                               ; preds = %44
  %47 = call fastcc i32 @php_get_xbm(ptr noundef %0, ptr noundef null), !range !5
  %.not77 = icmp eq i32 %47, 0
  %.78 = select i1 %.not77, i32 0, i32 16
  br label %48

48:                                               ; preds = %46, %42, %39, %36, %32, %31, %30, %29, %25, %20, %19, %18, %17, %16, %14, %9, %8, %45, %28, %24, %15, %13, %7
  %.0 = phi i32 [ 0, %7 ], [ 0, %28 ], [ 0, %45 ], [ 0, %24 ], [ 0, %13 ], [ 0, %15 ], [ 1, %8 ], [ 2, %9 ], [ 3, %14 ], [ 4, %16 ], [ 13, %17 ], [ 5, %18 ], [ 6, %19 ], [ 9, %20 ], [ %., %25 ], [ 7, %29 ], [ 8, %30 ], [ 14, %31 ], [ 17, %32 ], [ 10, %36 ], [ 19, %39 ], [ 15, %42 ], [ %.78, %46 ]
  ret i32 %.0
}